target datalayout = "e-m:e-p270:32:32-p271:32:32-p272:64:64-i64:64-i128:128-f80:128-n8:16:32:64-S128"
target triple = "x86_64-pc-linux-gnu"

%"struct.pkpy::Dict" = type { ptr, i32, i32, i32, i32, i32, i32, ptr, ptr }
%"struct.pkpy::Dict::Item" = type { ptr, ptr }
%"struct.pkpy::Dict::ItemNode" = type { i32, i32 }

; Function Attrs: mustprogress uwtable
define noundef zeroext i1 @_ZN4pkpy4Dict5eraseEPNS_8PyObjectE(ptr noundef nonnull align 8 dereferenceable(48) %0, ptr noundef %1) #7 align 2 {
  %3 = alloca i1, align 1
  %4 = alloca ptr, align 8
  %5 = alloca ptr, align 8
  %6 = alloca i8, align 1
  %7 = alloca i32, align 4
  store ptr %0, ptr %4, align 8
  store ptr %1, ptr %5, align 8
  %8 = load ptr, ptr %4, align 8
  %9 = load ptr, ptr %5, align 8
  call void @_ZNK4pkpy4Dict8_probe_0EPNS_8PyObjectERbRi(ptr noundef nonnull align 8 dereferenceable(48) %8, ptr noundef %9, ptr noundef nonnull align 1 dereferenceable(1) %6, ptr noundef nonnull align 4 dereferenceable(4) %7)
  %10 = load i8, ptr %6, align 1
  %11 = trunc i8 %10 to i1
  br i1 %11, label %13, label %12

12:                                               ; preds = %2
  store i1 false, ptr %3, align 1
  br label %125

13:                                               ; preds = %2
  %14 = getelementptr inbounds %"struct.pkpy::Dict", ptr %8, i32 0, i32 7
  %15 = load ptr, ptr %14, align 8
  %16 = load i32, ptr %7, align 4
  %17 = sext i32 %16 to i64
  %18 = getelementptr inbounds %"struct.pkpy::Dict::Item", ptr %15, i64 %17
  %19 = getelementptr inbounds %"struct.pkpy::Dict::Item", ptr %18, i32 0, i32 0
  store ptr null, ptr %19, align 8
  %20 = getelementptr inbounds %"struct.pkpy::Dict", ptr %8, i32 0, i32 3
  %21 = load i32, ptr %20, align 8
  %22 = add nsw i32 %21, -1
  store i32 %22, ptr %20, align 8
  %23 = getelementptr inbounds %"struct.pkpy::Dict", ptr %8, i32 0, i32 3
  %24 = load i32, ptr %23, align 8
  %25 = icmp eq i32 %24, 0
  br i1 %25, label %26, label %29

26:                                               ; preds = %13
  %27 = getelementptr inbounds %"struct.pkpy::Dict", ptr %8, i32 0, i32 5
  store i32 -1, ptr %27, align 8
  %28 = getelementptr inbounds %"struct.pkpy::Dict", ptr %8, i32 0, i32 6
  store i32 -1, ptr %28, align 4
  br label %112

29:                                               ; preds = %13
  %30 = getelementptr inbounds %"struct.pkpy::Dict", ptr %8, i32 0, i32 5
  %31 = load i32, ptr %30, align 8
  %32 = load i32, ptr %7, align 4
  %33 = icmp eq i32 %31, %32
  br i1 %33, label %34, label %50

34:                                               ; preds = %29
  %35 = getelementptr inbounds %"struct.pkpy::Dict", ptr %8, i32 0, i32 8
  %36 = load ptr, ptr %35, align 8
  %37 = load i32, ptr %7, align 4
  %38 = sext i32 %37 to i64
  %39 = getelementptr inbounds %"struct.pkpy::Dict::ItemNode", ptr %36, i64 %38
  %40 = getelementptr inbounds %"struct.pkpy::Dict::ItemNode", ptr %39, i32 0, i32 1
  %41 = load i32, ptr %40, align 4
  %42 = getelementptr inbounds %"struct.pkpy::Dict", ptr %8, i32 0, i32 5
  store i32 %41, ptr %42, align 8
  %43 = getelementptr inbounds %"struct.pkpy::Dict", ptr %8, i32 0, i32 8
  %44 = load ptr, ptr %43, align 8
  %45 = getelementptr inbounds %"struct.pkpy::Dict", ptr %8, i32 0, i32 5
  %46 = load i32, ptr %45, align 8
  %47 = sext i32 %46 to i64
  %48 = getelementptr inbounds %"struct.pkpy::Dict::ItemNode", ptr %44, i64 %47
  %49 = getelementptr inbounds %"struct.pkpy::Dict::ItemNode", ptr %48, i32 0, i32 0
  store i32 -1, ptr %49, align 4
  br label %111

50:                                               ; preds = %29
  %51 = getelementptr inbounds %"struct.pkpy::Dict", ptr %8, i32 0, i32 6
  %52 = load i32, ptr %51, align 4
  %53 = load i32, ptr %7, align 4
  %54 = icmp eq i32 %52, %53
  br i1 %54, label %55, label %71

55:                                               ; preds = %50
  %56 = getelementptr inbounds %"struct.pkpy::Dict", ptr %8, i32 0, i32 8
  %57 = load ptr, ptr %56, align 8
  %58 = load i32, ptr %7, align 4
  %59 = sext i32 %58 to i64
  %60 = getelementptr inbounds %"struct.pkpy::Dict::ItemNode", ptr %57, i64 %59
  %61 = getelementptr inbounds %"struct.pkpy::Dict::ItemNode", ptr %60, i32 0, i32 0
  %62 = load i32, ptr %61, align 4
  %63 = getelementptr inbounds %"struct.pkpy::Dict", ptr %8, i32 0, i32 6
  store i32 %62, ptr %63, align 4
  %64 = getelementptr inbounds %"struct.pkpy::Dict", ptr %8, i32 0, i32 8
  %65 = load ptr, ptr %64, align 8
  %66 = getelementptr inbounds %"struct.pkpy::Dict", ptr %8, i32 0, i32 6
  %67 = load i32, ptr %66, align 4
  %68 = sext i32 %67 to i64
  %69 = getelementptr inbounds %"struct.pkpy::Dict::ItemNode", ptr %65, i64 %68
  %70 = getelementptr inbounds %"struct.pkpy::Dict::ItemNode", ptr %69, i32 0, i32 1
  store i32 -1, ptr %70, align 4
  br label %110

71:                                               ; preds = %50
  %72 = getelementptr inbounds %"struct.pkpy::Dict", ptr %8, i32 0, i32 8
  %73 = load ptr, ptr %72, align 8
  %74 = load i32, ptr %7, align 4
  %75 = sext i32 %74 to i64
  %76 = getelementptr inbounds %"struct.pkpy::Dict::ItemNode", ptr %73, i64 %75
  %77 = getelementptr inbounds %"struct.pkpy::Dict::ItemNode", ptr %76, i32 0, i32 1
  %78 = load i32, ptr %77, align 4
  %79 = getelementptr inbounds %"struct.pkpy::Dict", ptr %8, i32 0, i32 8
  %80 = load ptr, ptr %79, align 8
  %81 = getelementptr inbounds %"struct.pkpy::Dict", ptr %8, i32 0, i32 8
  %82 = load ptr, ptr %81, align 8
  %83 = load i32, ptr %7, align 4
  %84 = sext i32 %83 to i64
  %85 = getelementptr inbounds %"struct.pkpy::Dict::ItemNode", ptr %82, i64 %84
  %86 = getelementptr inbounds %"struct.pkpy::Dict::ItemNode", ptr %85, i32 0, i32 0
  %87 = load i32, ptr %86, align 4
  %88 = sext i32 %87 to i64
  %89 = getelementptr inbounds %"struct.pkpy::Dict::ItemNode", ptr %80, i64 %88
  %90 = getelementptr inbounds %"struct.pkpy::Dict::ItemNode", ptr %89, i32 0, i32 1
  store i32 %78, ptr %90, align 4
  %91 = getelementptr inbounds %"struct.pkpy::Dict", ptr %8, i32 0, i32 8
  %92 = load ptr, ptr %91, align 8
  %93 = load i32, ptr %7, align 4
  %94 = sext i32 %93 to i64
  %95 = getelementptr inbounds %"struct.pkpy::Dict::ItemNode", ptr %92, i64 %94
  %96 = getelementptr inbounds %"struct.pkpy::Dict::ItemNode", ptr %95, i32 0, i32 0
  %97 = load i32, ptr %96, align 4
  %98 = getelementptr inbounds %"struct.pkpy::Dict", ptr %8, i32 0, i32 8
  %99 = load ptr, ptr %98, align 8
  %100 = getelementptr inbounds %"struct.pkpy::Dict", ptr %8, i32 0, i32 8
  %101 = load ptr, ptr %100, align 8
  %102 = load i32, ptr %7, align 4
  %103 = sext i32 %102 to i64
  %104 = getelementptr inbounds %"struct.pkpy::Dict::ItemNode", ptr %101, i64 %103
  %105 = getelementptr inbounds %"struct.pkpy::Dict::ItemNode", ptr %104, i32 0, i32 1
  %106 = load i32, ptr %105, align 4
  %107 = sext i32 %106 to i64
  %108 = getelementptr inbounds %"struct.pkpy::Dict::ItemNode", ptr %99, i64 %107
  %109 = getelementptr inbounds %"struct.pkpy::Dict::ItemNode", ptr %108, i32 0, i32 0
  store i32 %97, ptr %109, align 4
  br label %110

110:                                              ; preds = %71, %55
  br label %111

111:                                              ; preds = %110, %34
  br label %112

112:                                              ; preds = %111, %26
  %113 = getelementptr inbounds %"struct.pkpy::Dict", ptr %8, i32 0, i32 8
  %114 = load ptr, ptr %113, align 8
  %115 = load i32, ptr %7, align 4
  %116 = sext i32 %115 to i64
  %117 = getelementptr inbounds %"struct.pkpy::Dict::ItemNode", ptr %114, i64 %116
  %118 = getelementptr inbounds %"struct.pkpy::Dict::ItemNode", ptr %117, i32 0, i32 0
  store i32 -1, ptr %118, align 4
  %119 = getelementptr inbounds %"struct.pkpy::Dict", ptr %8, i32 0, i32 8
  %120 = load ptr, ptr %119, align 8
  %121 = load i32, ptr %7, align 4
  %122 = sext i32 %121 to i64
  %123 = getelementptr inbounds %"struct.pkpy::Dict::ItemNode", ptr %120, i64 %122
  %124 = getelementptr inbounds %"struct.pkpy::Dict::ItemNode", ptr %123, i32 0, i32 1
  store i32 -1, ptr %124, align 4
  store i1 true, ptr %3, align 1
  br label %125

125:                                              ; preds = %112, %12
  %126 = load i1, ptr %3, align 1
  ret i1 %126
}