; Function Attrs: mustprogress uwtable
define noundef zeroext i1 @_ZN4pkpy4Dict5eraseEPNS_8PyObjectE(ptr noundef nonnull align 8 dereferenceable(48) %0, ptr noundef %1) local_unnamed_addr #7 align 2 {
  %3 = alloca i8, align 1
  %4 = alloca i32, align 4
  call void @_ZNK4pkpy4Dict8_probe_0EPNS_8PyObjectERbRi(ptr noundef nonnull align 8 dereferenceable(48) %0, ptr noundef %1, ptr noundef nonnull align 1 dereferenceable(1) %3, ptr noundef nonnull align 4 dereferenceable(4) %4)
  %5 = load i8, ptr %3, align 1
  %6 = trunc i8 %5 to i1
  br i1 %6, label %7, label %66

7:                                                ; preds = %2
  %8 = getelementptr inbounds i8, ptr %0, i64 32
  %9 = load ptr, ptr %8, align 8
  %10 = load i32, ptr %4, align 4
  %11 = sext i32 %10 to i64
  %12 = getelementptr inbounds %"struct.pkpy::Dict::Item", ptr %9, i64 %11
  store ptr null, ptr %12, align 8
  %13 = getelementptr inbounds i8, ptr %0, i64 16
  %14 = load i32, ptr %13, align 8
  %15 = add nsw i32 %14, -1
  store i32 %15, ptr %13, align 8
  %16 = icmp eq i32 %15, 0
  %17 = getelementptr inbounds i8, ptr %0, i64 24
  br i1 %16, label %18, label %20

18:                                               ; preds = %7
  store i32 -1, ptr %17, align 8
  %19 = getelementptr inbounds i8, ptr %0, i64 28
  store i32 -1, ptr %19, align 4
  br label %56

20:                                               ; preds = %7
  %21 = load i32, ptr %17, align 8
  %22 = icmp eq i32 %21, %10
  br i1 %22, label %23, label %30

23:                                               ; preds = %20
  %24 = getelementptr inbounds i8, ptr %0, i64 40
  %25 = load ptr, ptr %24, align 8
  %26 = getelementptr inbounds %"struct.pkpy::Dict::ItemNode", ptr %25, i64 %11, i32 1
  %27 = load i32, ptr %26, align 4
  store i32 %27, ptr %17, align 8
  %28 = sext i32 %27 to i64
  %29 = getelementptr inbounds %"struct.pkpy::Dict::ItemNode", ptr %25, i64 %28
  store i32 -1, ptr %29, align 4
  br label %56

30:                                               ; preds = %20
  %31 = getelementptr inbounds i8, ptr %0, i64 28
  %32 = load i32, ptr %31, align 4
  %33 = icmp eq i32 %32, %10
  %34 = getelementptr inbounds i8, ptr %0, i64 40
  %35 = load ptr, ptr %34, align 8
  %36 = getelementptr inbounds %"struct.pkpy::Dict::ItemNode", ptr %35, i64 %11
  br i1 %33, label %37, label %41

37:                                               ; preds = %30
  %38 = load i32, ptr %36, align 4
  store i32 %38, ptr %31, align 4
  %39 = sext i32 %38 to i64
  %40 = getelementptr inbounds %"struct.pkpy::Dict::ItemNode", ptr %35, i64 %39, i32 1
  store i32 -1, ptr %40, align 4
  br label %56

41:                                               ; preds = %30
  %42 = getelementptr inbounds i8, ptr %36, i64 4
  %43 = load i32, ptr %42, align 4
  %44 = load i32, ptr %36, align 4
  %45 = sext i32 %44 to i64
  %46 = getelementptr inbounds %"struct.pkpy::Dict::ItemNode", ptr %35, i64 %45, i32 1
  store i32 %43, ptr %46, align 4
  %47 = load ptr, ptr %34, align 8
  %48 = load i32, ptr %4, align 4
  %49 = sext i32 %48 to i64
  %50 = getelementptr inbounds %"struct.pkpy::Dict::ItemNode", ptr %47, i64 %49
  %51 = load i32, ptr %50, align 4
  %52 = getelementptr inbounds i8, ptr %50, i64 4
  %53 = load i32, ptr %52, align 4
  %54 = sext i32 %53 to i64
  %55 = getelementptr inbounds %"struct.pkpy::Dict::ItemNode", ptr %47, i64 %54
  store i32 %51, ptr %55, align 4
  br label %56

56:                                               ; preds = %23, %41, %37, %18
  %57 = getelementptr inbounds i8, ptr %0, i64 40
  %58 = load ptr, ptr %57, align 8
  %59 = load i32, ptr %4, align 4
  %60 = sext i32 %59 to i64
  %61 = getelementptr inbounds %"struct.pkpy::Dict::ItemNode", ptr %58, i64 %60
  store i32 -1, ptr %61, align 4
  %62 = load ptr, ptr %57, align 8
  %63 = load i32, ptr %4, align 4
  %64 = sext i32 %63 to i64
  %65 = getelementptr inbounds %"struct.pkpy::Dict::ItemNode", ptr %62, i64 %64, i32 1
  store i32 -1, ptr %65, align 4
  br label %66

66:                                               ; preds = %2, %56
  ret i1 %6
}